target datalayout = "e-m:e-p270:32:32-p271:32:32-p272:64:64-i64:64-i128:128-f80:128-n8:16:32:64-S128"
target triple = "x86_64-unknown-linux-gnu"

%struct.Operation = type { i32, %union.anon }
%union.anon = type { %struct.Argument_VcField }
%struct.Argument_VcField = type { ptr, ptr, i32, ptr, i32 }
%struct.FLAC__StreamMetadata = type { i32, i32, i32, %union.anon.3 }
%union.anon.3 = type { %struct.FLAC__StreamMetadata_CueSheet }
%struct.FLAC__StreamMetadata_CueSheet = type { [129 x i8], i64, i32, i32, ptr }
%struct.Argument_AddSeekpoint = type { ptr }
%struct.Argument_AddPadding = type { i32 }

@.str.6 = private unnamed_addr constant [34 x i8] c"out of memory allocating iterator\00", align 1
@.str.76 = private unnamed_addr constant [39 x i8] c"out of memory allocating PADDING block\00", align 1
@.str.77 = private unnamed_addr constant [48 x i8] c"%s: ERROR: adding new PADDING block to metadata\00", align 1

; Function Attrs: nounwind sspstrong uwtable
define internal i32 @do_shorthand_operation__add_padding(ptr noundef %filename, ptr noundef %chain, i32 noundef %length, ptr noundef %needs_write) #0 {
entry:
  %retval = alloca i32, align 4
  %filename.addr = alloca ptr, align 8
  %chain.addr = alloca ptr, align 8
  %length.addr = alloca i32, align 4
  %needs_write.addr = alloca ptr, align 8
  %padding = alloca ptr, align 8
  %iterator = alloca ptr, align 8
  store ptr %filename, ptr %filename.addr, align 8
  store ptr %chain, ptr %chain.addr, align 8
  store i32 %length, ptr %length.addr, align 4
  store ptr %needs_write, ptr %needs_write.addr, align 8
  store ptr null, ptr %padding, align 8
  %call = call ptr @FLAC__metadata_iterator_new()
  store ptr %call, ptr %iterator, align 8
  %0 = load ptr, ptr %iterator, align 8
  %cmp = icmp eq ptr null, %0
  br i1 %cmp, label %if.then, label %if.end

if.then:                                          ; preds = %entry
  call void @die(ptr noundef @.str.6)
  br label %if.end

if.end:                                           ; preds = %if.then, %entry
  %1 = load ptr, ptr %iterator, align 8
  %2 = load ptr, ptr %chain.addr, align 8
  call void @FLAC__metadata_iterator_init(ptr noundef %1, ptr noundef %2)
  br label %while.cond

while.cond:                                       ; preds = %while.body, %if.end
  %3 = load ptr, ptr %iterator, align 8
  %call1 = call i32 @FLAC__metadata_iterator_next(ptr noundef %3)
  %tobool = icmp ne i32 %call1, 0
  br i1 %tobool, label %while.body, label %while.end

while.body:                                       ; preds = %while.cond
  br label %while.cond, !llvm.loop !30

while.end:                                        ; preds = %while.cond
  %call2 = call ptr @FLAC__metadata_object_new(i32 noundef 1)
  store ptr %call2, ptr %padding, align 8
  %4 = load ptr, ptr %padding, align 8
  %cmp3 = icmp eq ptr null, %4
  br i1 %cmp3, label %if.then4, label %if.end5

if.then4:                                         ; preds = %while.end
  call void @die(ptr noundef @.str.76)
  br label %if.end5

if.end5:                                          ; preds = %if.then4, %while.end
  %5 = load i32, ptr %length.addr, align 4
  %6 = load ptr, ptr %padding, align 8
  %length6 = getelementptr inbounds %struct.FLAC__StreamMetadata, ptr %6, i32 0, i32 2
  store i32 %5, ptr %length6, align 8
  %7 = load ptr, ptr %iterator, align 8
  %8 = load ptr, ptr %padding, align 8
  %call7 = call i32 @FLAC__metadata_iterator_insert_block_after(ptr noundef %7, ptr noundef %8)
  %tobool8 = icmp ne i32 %call7, 0
  br i1 %tobool8, label %if.end10, label %if.then9

if.then9:                                         ; preds = %if.end5
  %9 = load ptr, ptr %chain.addr, align 8
  %10 = load ptr, ptr %filename.addr, align 8
  call void (ptr, ptr, ...) @print_error_with_chain_status(ptr noundef %9, ptr noundef @.str.77, ptr noundef %10)
  %11 = load ptr, ptr %padding, align 8
  call void @FLAC__metadata_object_delete(ptr noundef %11)
  %12 = load ptr, ptr %iterator, align 8
  call void @FLAC__metadata_iterator_delete(ptr noundef %12)
  store i32 0, ptr %retval, align 4
  br label %return

if.end10:                                         ; preds = %if.end5
  %13 = load ptr, ptr %iterator, align 8
  call void @FLAC__metadata_iterator_delete(ptr noundef %13)
  %14 = load ptr, ptr %needs_write.addr, align 8
  store i32 1, ptr %14, align 4
  store i32 1, ptr %retval, align 4
  br label %return

return:                                           ; preds = %if.end10, %if.then9
  %15 = load i32, ptr %retval, align 4
  ret i32 %15
}

; Function Attrs: nounwind sspstrong uwtable
define internal i32 @do_shorthand_operation(ptr noundef %filename, i32 noundef %prefix_with_filename, ptr noundef %chain, ptr noundef %operation, ptr noundef %needs_write, i32 noundef %utf8_convert) #0 {
entry:
  %filename.addr = alloca ptr, align 8
  %prefix_with_filename.addr = alloca i32, align 4
  %chain.addr = alloca ptr, align 8
  %operation.addr = alloca ptr, align 8
  %needs_write.addr = alloca ptr, align 8
  %utf8_convert.addr = alloca i32, align 4
  %ok = alloca i32, align 4
  store ptr %filename, ptr %filename.addr, align 8
  store i32 %prefix_with_filename, ptr %prefix_with_filename.addr, align 4
  store ptr %chain, ptr %chain.addr, align 8
  store ptr %operation, ptr %operation.addr, align 8
  store ptr %needs_write, ptr %needs_write.addr, align 8
  store i32 %utf8_convert, ptr %utf8_convert.addr, align 4
  store i32 1, ptr %ok, align 4
  %0 = load ptr, ptr %operation.addr, align 8
  %type = getelementptr inbounds %struct.Operation, ptr %0, i32 0, i32 0
  %1 = load i32, ptr %type, align 8
  switch i32 %1, label %sw.default [
    i32 0, label %sw.bb
    i32 1, label %sw.bb
    i32 2, label %sw.bb
    i32 3, label %sw.bb
    i32 4, label %sw.bb
    i32 5, label %sw.bb
    i32 6, label %sw.bb
    i32 7, label %sw.bb
    i32 8, label %sw.bb
    i32 9, label %sw.bb
    i32 10, label %sw.bb
    i32 11, label %sw.bb
    i32 12, label %sw.bb
    i32 13, label %sw.bb
    i32 14, label %sw.bb
    i32 15, label %sw.bb
    i32 16, label %sw.bb
    i32 17, label %sw.bb
    i32 18, label %sw.bb1
    i32 19, label %sw.bb1
    i32 20, label %sw.bb1
    i32 21, label %sw.bb1
    i32 22, label %sw.bb1
    i32 23, label %sw.bb1
    i32 24, label %sw.bb1
    i32 25, label %sw.bb1
    i32 26, label %sw.bb1
    i32 27, label %sw.bb3
    i32 28, label %sw.bb3
    i32 29, label %sw.bb5
    i32 30, label %sw.bb5
    i32 31, label %sw.bb7
    i32 32, label %sw.bb9
    i32 33, label %sw.bb9
    i32 34, label %sw.bb10
  ]

sw.bb:                                            ; preds = %entry, %entry, %entry, %entry, %entry, %entry, %entry, %entry, %entry, %entry, %entry, %entry, %entry, %entry, %entry, %entry, %entry, %entry
  %2 = load ptr, ptr %filename.addr, align 8
  %3 = load i32, ptr %prefix_with_filename.addr, align 4
  %4 = load ptr, ptr %chain.addr, align 8
  %5 = load ptr, ptr %operation.addr, align 8
  %6 = load ptr, ptr %needs_write.addr, align 8
  %call = call i32 @do_shorthand_operation__streaminfo(ptr noundef %2, i32 noundef %3, ptr noundef %4, ptr noundef %5, ptr noundef %6)
  store i32 %call, ptr %ok, align 4
  br label %sw.epilog

sw.bb1:                                           ; preds = %entry, %entry, %entry, %entry, %entry, %entry, %entry, %entry, %entry
  %7 = load ptr, ptr %filename.addr, align 8
  %8 = load i32, ptr %prefix_with_filename.addr, align 4
  %9 = load ptr, ptr %chain.addr, align 8
  %10 = load ptr, ptr %operation.addr, align 8
  %11 = load ptr, ptr %needs_write.addr, align 8
  %12 = load i32, ptr %utf8_convert.addr, align 4
  %tobool = icmp ne i32 %12, 0
  %lnot = xor i1 %tobool, true
  %lnot.ext = zext i1 %lnot to i32
  %call2 = call i32 @do_shorthand_operation__vorbis_comment(ptr noundef %7, i32 noundef %8, ptr noundef %9, ptr noundef %10, ptr noundef %11, i32 noundef %lnot.ext)
  store i32 %call2, ptr %ok, align 4
  br label %sw.epilog

sw.bb3:                                           ; preds = %entry, %entry
  %13 = load ptr, ptr %filename.addr, align 8
  %14 = load ptr, ptr %chain.addr, align 8
  %15 = load ptr, ptr %operation.addr, align 8
  %16 = load ptr, ptr %needs_write.addr, align 8
  %call4 = call i32 @do_shorthand_operation__cuesheet(ptr noundef %13, ptr noundef %14, ptr noundef %15, ptr noundef %16)
  store i32 %call4, ptr %ok, align 4
  br label %sw.epilog

sw.bb5:                                           ; preds = %entry, %entry
  %17 = load ptr, ptr %filename.addr, align 8
  %18 = load ptr, ptr %chain.addr, align 8
  %19 = load ptr, ptr %operation.addr, align 8
  %20 = load ptr, ptr %needs_write.addr, align 8
  %call6 = call i32 @do_shorthand_operation__picture(ptr noundef %17, ptr noundef %18, ptr noundef %19, ptr noundef %20)
  store i32 %call6, ptr %ok, align 4
  br label %sw.epilog

sw.bb7:                                           ; preds = %entry
  %21 = load ptr, ptr %filename.addr, align 8
  %22 = load ptr, ptr %chain.addr, align 8
  %23 = load ptr, ptr %operation.addr, align 8
  %argument = getelementptr inbounds %struct.Operation, ptr %23, i32 0, i32 1
  %specification = getelementptr inbounds %struct.Argument_AddSeekpoint, ptr %argument, i32 0, i32 0
  %24 = load ptr, ptr %specification, align 8
  %25 = load ptr, ptr %needs_write.addr, align 8
  %call8 = call i32 @do_shorthand_operation__add_seekpoints(ptr noundef %21, ptr noundef %22, ptr noundef %24, ptr noundef %25)
  store i32 %call8, ptr %ok, align 4
  br label %sw.epilog

sw.bb9:                                           ; preds = %entry, %entry
  store i32 1, ptr %ok, align 4
  br label %sw.epilog

sw.bb10:                                          ; preds = %entry
  %26 = load ptr, ptr %filename.addr, align 8
  %27 = load ptr, ptr %chain.addr, align 8
  %28 = load ptr, ptr %operation.addr, align 8
  %argument11 = getelementptr inbounds %struct.Operation, ptr %28, i32 0, i32 1
  %length = getelementptr inbounds %struct.Argument_AddPadding, ptr %argument11, i32 0, i32 0
  %29 = load i32, ptr %length, align 8
  %30 = load ptr, ptr %needs_write.addr, align 8
  %call12 = call i32 @do_shorthand_operation__add_padding(ptr noundef %26, ptr noundef %27, i32 noundef %29, ptr noundef %30)
  store i32 %call12, ptr %ok, align 4
  br label %sw.epilog

sw.default:                                       ; preds = %entry
  store i32 0, ptr %ok, align 4
  br label %sw.epilog

sw.epilog:                                        ; preds = %sw.default, %sw.bb10, %sw.bb9, %sw.bb7, %sw.bb5, %sw.bb3, %sw.bb1, %sw.bb
  %31 = load i32, ptr %ok, align 4
  ret i32 %31
}