; Function Attrs: nounwind sspstrong uwtable
define internal fastcc i32 @do_shorthand_operation(ptr noundef %filename, i32 noundef %prefix_with_filename, ptr noundef %chain, ptr noundef %operation, ptr noundef nonnull %needs_write, i32 noundef %utf8_convert) unnamed_addr #0 {
entry:
  %0 = load i32, ptr %operation, align 8
  switch i32 %0, label %sw.default [
    i32 0, label %sw.bb
    i32 1, label %sw.bb
    i32 2, label %sw.bb
    i32 3, label %sw.bb
    i32 4, label %sw.bb
    i32 5, label %sw.bb
    i32 6, label %sw.bb
    i32 7, label %sw.bb
    i32 8, label %sw.bb
    i32 9, label %sw.bb
    i32 10, label %sw.bb
    i32 11, label %sw.bb
    i32 12, label %sw.bb
    i32 13, label %sw.bb
    i32 14, label %sw.bb
    i32 15, label %sw.bb
    i32 16, label %sw.bb
    i32 17, label %sw.bb
    i32 18, label %sw.bb1
    i32 19, label %sw.bb1
    i32 20, label %sw.bb1
    i32 21, label %sw.bb1
    i32 22, label %sw.bb1
    i32 23, label %sw.bb1
    i32 24, label %sw.bb1
    i32 25, label %sw.bb1
    i32 26, label %sw.bb1
    i32 27, label %sw.bb3
    i32 28, label %sw.bb3
    i32 29, label %sw.bb5
    i32 30, label %sw.bb5
    i32 31, label %sw.bb7
    i32 32, label %sw.epilog
    i32 33, label %sw.epilog
    i32 34, label %sw.bb10
  ]

sw.bb:                                            ; preds = %entry, %entry, %entry, %entry, %entry, %entry, %entry, %entry, %entry, %entry, %entry, %entry, %entry, %entry, %entry, %entry, %entry, %entry
  %call = tail call i32 @do_shorthand_operation__streaminfo(ptr noundef %filename, i32 noundef %prefix_with_filename, ptr noundef %chain, ptr noundef nonnull %operation, ptr noundef nonnull %needs_write) #9
  br label %sw.epilog

sw.bb1:                                           ; preds = %entry, %entry, %entry, %entry, %entry, %entry, %entry, %entry, %entry
  %tobool.not = icmp eq i32 %utf8_convert, 0
  %lnot.ext = zext i1 %tobool.not to i32
  %call2 = tail call i32 @do_shorthand_operation__vorbis_comment(ptr noundef %filename, i32 noundef %prefix_with_filename, ptr noundef %chain, ptr noundef nonnull %operation, ptr noundef nonnull %needs_write, i32 noundef %lnot.ext) #9
  br label %sw.epilog

sw.bb3:                                           ; preds = %entry, %entry
  %call4 = tail call i32 @do_shorthand_operation__cuesheet(ptr noundef %filename, ptr noundef %chain, ptr noundef nonnull %operation, ptr noundef nonnull %needs_write) #9
  br label %sw.epilog

sw.bb5:                                           ; preds = %entry, %entry
  %call6 = tail call i32 @do_shorthand_operation__picture(ptr noundef %filename, ptr noundef %chain, ptr noundef nonnull %operation, ptr noundef nonnull %needs_write) #9
  br label %sw.epilog

sw.bb7:                                           ; preds = %entry
  %argument = getelementptr inbounds nuw i8, ptr %operation, i64 8
  %1 = load ptr, ptr %argument, align 8
  %call8 = tail call i32 @do_shorthand_operation__add_seekpoints(ptr noundef %filename, ptr noundef %chain, ptr noundef %1, ptr noundef nonnull %needs_write) #9
  br label %sw.epilog

sw.bb10:                                          ; preds = %entry
  %argument11 = getelementptr inbounds nuw i8, ptr %operation, i64 8
  %2 = load i32, ptr %argument11, align 8
  %call.i = tail call ptr @FLAC__metadata_iterator_new() #9
  %cmp.i = icmp eq ptr %call.i, null
  br i1 %cmp.i, label %if.then.i, label %if.end.i

if.then.i:                                        ; preds = %sw.bb10
  tail call void @die(ptr noundef nonnull @.str.6) #9
  br label %if.end.i

if.end.i:                                         ; preds = %if.then.i, %sw.bb10
  tail call void @FLAC__metadata_iterator_init(ptr noundef %call.i, ptr noundef %chain) #9
  br label %while.cond.i

while.cond.i:                                     ; preds = %while.cond.i, %if.end.i
  %call1.i = tail call i32 @FLAC__metadata_iterator_next(ptr noundef %call.i) #9
  %tobool.not.i = icmp eq i32 %call1.i, 0
  br i1 %tobool.not.i, label %while.end.i, label %while.cond.i, !llvm.loop !30

while.end.i:                                      ; preds = %while.cond.i
  %call2.i = tail call ptr @FLAC__metadata_object_new(i32 noundef 1) #9
  %cmp3.i = icmp eq ptr %call2.i, null
  br i1 %cmp3.i, label %if.then4.i, label %if.end5.i

if.then4.i:                                       ; preds = %while.end.i
  tail call void @die(ptr noundef nonnull @.str.76) #9
  br label %if.end5.i

if.end5.i:                                        ; preds = %if.then4.i, %while.end.i
  %length6.i = getelementptr inbounds nuw i8, ptr %call2.i, i64 8
  store i32 %2, ptr %length6.i, align 8
  %call7.i = tail call i32 @FLAC__metadata_iterator_insert_block_after(ptr noundef %call.i, ptr noundef %call2.i) #9
  %tobool8.not.i = icmp eq i32 %call7.i, 0
  br i1 %tobool8.not.i, label %if.then9.i, label %if.end10.i

if.then9.i:                                       ; preds = %if.end5.i
  tail call void (ptr, ptr, ...) @print_error_with_chain_status(ptr noundef %chain, ptr noundef nonnull @.str.77, ptr noundef %filename) #9
  tail call void @FLAC__metadata_object_delete(ptr noundef nonnull %call2.i) #9
  tail call void @FLAC__metadata_iterator_delete(ptr noundef %call.i) #9
  br label %sw.epilog

if.end10.i:                                       ; preds = %if.end5.i
  tail call void @FLAC__metadata_iterator_delete(ptr noundef %call.i) #9
  store i32 1, ptr %needs_write, align 4
  br label %sw.epilog

sw.default:                                       ; preds = %entry
  br label %sw.epilog

sw.epilog:                                        ; preds = %if.end10.i, %if.then9.i, %entry, %entry, %sw.default, %sw.bb7, %sw.bb5, %sw.bb3, %sw.bb1, %sw.bb
  %ok.0 = phi i32 [ 0, %sw.default ], [ %call8, %sw.bb7 ], [ %call6, %sw.bb5 ], [ %call4, %sw.bb3 ], [ %call2, %sw.bb1 ], [ %call, %sw.bb ], [ 1, %entry ], [ 1, %entry ], [ 1, %if.end10.i ], [ 0, %if.then9.i ]
  ret i32 %ok.0
}